target datalayout = "e-m:e-p270:32:32-p271:32:32-p272:64:64-i64:64-i128:128-f80:128-n8:16:32:64-S128"
target triple = "x86_64-pc-linux-gnu"

%union.pthread_mutex_t = type { %struct.__pthread_mutex_s }
%struct.__pthread_mutex_s = type { i32, i32, i32, i32, i32, i16, i16, %struct.__pthread_internal_list }
%struct.__pthread_internal_list = type { ptr, ptr }
%struct.cli_filter_ops = type { ptr, ptr, ptr }
%struct.timeval = type { i64, i64 }

@g_context_lock = internal global %union.pthread_mutex_t zeroinitializer, align 8
@.str.1 = private unnamed_addr constant [29 x i8] c"%s: pthread_mutex_lock(): %m\00", align 1
@g_context_cnt = internal global i32 -1, align 4
@ops = internal global ptr null, align 8
@.str.7 = private unnamed_addr constant [31 x i8] c"%s: pthread_mutex_unlock(): %m\00", align 1
@__func__.cli_filter_g_pre_submit = private unnamed_addr constant [24 x i8] c"cli_filter_g_pre_submit\00", align 1

; Function Attrs: nounwind uwtable
define dso_local i32 @cli_filter_g_pre_submit(ptr noundef %0, i32 noundef %1) #0 {
  %3 = alloca i32, align 4
  %4 = alloca ptr, align 8
  %5 = alloca i32, align 4
  %6 = alloca %struct.timeval, align 8
  %7 = alloca %struct.timeval, align 8
  %8 = alloca [20 x i8], align 16
  %9 = alloca i64, align 8
  %10 = alloca i32, align 4
  %11 = alloca i32, align 4
  %12 = alloca i32, align 4
  %13 = alloca i32, align 4
  %14 = alloca i32, align 4
  store ptr %0, ptr %4, align 8
  store i32 %1, ptr %5, align 4
  call void @llvm.lifetime.start.p0(i64 16, ptr %6) #7
  call void @llvm.lifetime.start.p0(i64 16, ptr %7) #7
  call void @llvm.lifetime.start.p0(i64 20, ptr %8) #7
  call void @llvm.memset.p0.i64(ptr align 16 %8, i8 0, i64 20, i1 false)
  call void @llvm.lifetime.start.p0(i64 8, ptr %9) #7
  call void @llvm.lifetime.start.p0(i64 4, ptr %10) #7
  call void @llvm.lifetime.start.p0(i64 4, ptr %11) #7
  store i32 0, ptr %11, align 4
  %15 = call i32 @gettimeofday(ptr noundef %6, ptr noundef null) #7
  %16 = load i32, ptr @g_context_cnt, align 4
  %17 = icmp ne i32 %16, 0
  br i1 %17, label %19, label %18

18:                                               ; preds = %2
  store i32 0, ptr %3, align 4
  store i32 1, ptr %12, align 4
  br label %69

19:                                               ; preds = %2
  br label %20

20:                                               ; preds = %19
  call void @llvm.lifetime.start.p0(i64 4, ptr %13) #7
  %21 = call i32 @pthread_mutex_lock(ptr noundef @g_context_lock) #7
  store i32 %21, ptr %13, align 4
  %22 = load i32, ptr %13, align 4
  %23 = icmp ne i32 %22, 0
  br i1 %23, label %24, label %27

24:                                               ; preds = %20
  %25 = load i32, ptr %13, align 4
  %26 = call ptr @__errno_location() #8
  store i32 %25, ptr %26, align 4
  call void (ptr, ...) @fatal_abort(ptr noundef @.str.1, ptr noundef @__func__.cli_filter_g_pre_submit) #9
  unreachable

27:                                               ; preds = %20
  call void @llvm.lifetime.end.p0(i64 4, ptr %13) #7
  br label %28

28:                                               ; preds = %27
  br label %29

29:                                               ; preds = %28
  store i32 0, ptr %10, align 4
  br label %30

30:                                               ; preds = %49, %29
  %31 = load i32, ptr %10, align 4
  %32 = load i32, ptr @g_context_cnt, align 4
  %33 = icmp slt i32 %31, %32
  br i1 %33, label %34, label %37

34:                                               ; preds = %30
  %35 = load i32, ptr %11, align 4
  %36 = icmp eq i32 %35, 0
  br label %37

37:                                               ; preds = %34, %30
  %38 = phi i1 [ false, %30 ], [ %36, %34 ]
  br i1 %38, label %39, label %52

39:                                               ; preds = %37
  %40 = load ptr, ptr @ops, align 8
  %41 = load i32, ptr %10, align 4
  %42 = sext i32 %41 to i64
  %43 = getelementptr inbounds %struct.cli_filter_ops, ptr %40, i64 %42
  %44 = getelementptr inbounds nuw %struct.cli_filter_ops, ptr %43, i32 0, i32 1
  %45 = load ptr, ptr %44, align 8
  %46 = load ptr, ptr %4, align 8
  %47 = load i32, ptr %5, align 4
  %48 = call i32 %45(ptr noundef %46, i32 noundef %47)
  store i32 %48, ptr %11, align 4
  br label %49

49:                                               ; preds = %39
  %50 = load i32, ptr %10, align 4
  %51 = add nsw i32 %50, 1
  store i32 %51, ptr %10, align 4
  br label %30, !llvm.loop !15

52:                                               ; preds = %37
  br label %53

53:                                               ; preds = %52
  call void @llvm.lifetime.start.p0(i64 4, ptr %14) #7
  %54 = call i32 @pthread_mutex_unlock(ptr noundef @g_context_lock) #7
  store i32 %54, ptr %14, align 4
  %55 = load i32, ptr %14, align 4
  %56 = icmp ne i32 %55, 0
  br i1 %56, label %57, label %60

57:                                               ; preds = %53
  %58 = load i32, ptr %14, align 4
  %59 = call ptr @__errno_location() #8
  store i32 %58, ptr %59, align 4
  call void (ptr, ...) @fatal_abort(ptr noundef @.str.7, ptr noundef @__func__.cli_filter_g_pre_submit) #9
  unreachable

60:                                               ; preds = %53
  call void @llvm.lifetime.end.p0(i64 4, ptr %14) #7
  br label %61

61:                                               ; preds = %60
  br label %62

62:                                               ; preds = %61
  br label %63

63:                                               ; preds = %62
  %64 = call i32 @gettimeofday(ptr noundef %7, ptr noundef null) #7
  %65 = getelementptr inbounds [20 x i8], ptr %8, i64 0, i64 0
  call void @slurm_diff_tv_str(ptr noundef %6, ptr noundef %7, ptr noundef %65, i32 noundef 20, ptr noundef @__func__.cli_filter_g_pre_submit, i64 noundef 0, ptr noundef %9)
  br label %66

66:                                               ; preds = %63
  br label %67

67:                                               ; preds = %66
  %68 = load i32, ptr %11, align 4
  store i32 %68, ptr %3, align 4
  store i32 1, ptr %12, align 4
  br label %69

69:                                               ; preds = %67, %18
  call void @llvm.lifetime.end.p0(i64 4, ptr %11) #7
  call void @llvm.lifetime.end.p0(i64 4, ptr %10) #7
  call void @llvm.lifetime.end.p0(i64 8, ptr %9) #7
  call void @llvm.lifetime.end.p0(i64 20, ptr %8) #7
  call void @llvm.lifetime.end.p0(i64 16, ptr %7) #7
  call void @llvm.lifetime.end.p0(i64 16, ptr %6) #7
  %70 = load i32, ptr %3, align 4
  ret i32 %70
}