; Function Attrs: nounwind uwtable
define dso_local i32 @cli_filter_g_pre_submit(ptr noundef %0, i32 noundef %1) local_unnamed_addr #0 {
  %3 = alloca %struct.timeval, align 8
  %4 = alloca %struct.timeval, align 8
  %5 = alloca [20 x i8], align 16
  %6 = alloca i64, align 8
  call void @llvm.lifetime.start.p0(i64 16, ptr nonnull %3) #9
  call void @llvm.lifetime.start.p0(i64 16, ptr nonnull %4) #9
  call void @llvm.lifetime.start.p0(i64 20, ptr nonnull %5) #9
  call void @llvm.memset.p0.i64(ptr noundef nonnull align 16 dereferenceable(20) %5, i8 0, i64 20, i1 false)
  call void @llvm.lifetime.start.p0(i64 8, ptr nonnull %6) #9
  %7 = call i32 @gettimeofday(ptr noundef nonnull %3, ptr noundef null) #9
  %8 = load i32, ptr @g_context_cnt, align 4
  %.not = icmp eq i32 %8, 0
  br i1 %.not, label %29, label %9

9:                                                ; preds = %2
  %10 = tail call i32 @pthread_mutex_lock(ptr noundef nonnull @g_context_lock) #9
  %.not15 = icmp eq i32 %10, 0
  br i1 %.not15, label %.preheader, label %13

.preheader:                                       ; preds = %9
  %11 = load i32, ptr @g_context_cnt, align 4
  %12 = icmp sgt i32 %11, 0
  br i1 %12, label %.lr.ph, label %._crit_edge

13:                                               ; preds = %9
  %14 = tail call ptr @__errno_location() #10
  store i32 %10, ptr %14, align 4
  tail call void (ptr, ...) @fatal_abort(ptr noundef nonnull @.str.1, ptr noundef nonnull @__func__.cli_filter_g_pre_submit) #11
  unreachable

.lr.ph:                                           ; preds = %.preheader, %.lr.ph
  %indvars.iv = phi i64 [ %indvars.iv.next, %.lr.ph ], [ 0, %.preheader ]
  %15 = load ptr, ptr @ops, align 8
  %16 = getelementptr inbounds nuw %struct.cli_filter_ops, ptr %15, i64 %indvars.iv, i32 1
  %17 = load ptr, ptr %16, align 8
  %18 = tail call i32 %17(ptr noundef %0, i32 noundef %1) #9
  %indvars.iv.next = add nuw nsw i64 %indvars.iv, 1
  %19 = load i32, ptr @g_context_cnt, align 4
  %20 = sext i32 %19 to i64
  %21 = icmp slt i64 %indvars.iv.next, %20
  %22 = icmp eq i32 %18, 0
  %23 = select i1 %21, i1 %22, i1 false
  br i1 %23, label %.lr.ph, label %._crit_edge, !llvm.loop !13

._crit_edge:                                      ; preds = %.lr.ph, %.preheader
  %.012.lcssa = phi i32 [ 0, %.preheader ], [ %18, %.lr.ph ]
  %24 = tail call i32 @pthread_mutex_unlock(ptr noundef nonnull @g_context_lock) #9
  %.not16 = icmp eq i32 %24, 0
  br i1 %.not16, label %27, label %25

25:                                               ; preds = %._crit_edge
  %26 = tail call ptr @__errno_location() #10
  store i32 %24, ptr %26, align 4
  tail call void (ptr, ...) @fatal_abort(ptr noundef nonnull @.str.7, ptr noundef nonnull @__func__.cli_filter_g_pre_submit) #11
  unreachable

27:                                               ; preds = %._crit_edge
  %28 = call i32 @gettimeofday(ptr noundef nonnull %4, ptr noundef null) #9
  call void @slurm_diff_tv_str(ptr noundef nonnull %3, ptr noundef nonnull %4, ptr noundef nonnull %5, i32 noundef 20, ptr noundef nonnull @__func__.cli_filter_g_pre_submit, i64 noundef 0, ptr noundef nonnull %6) #9
  br label %29

29:                                               ; preds = %2, %27
  %.0 = phi i32 [ %.012.lcssa, %27 ], [ 0, %2 ]
  call void @llvm.lifetime.end.p0(i64 8, ptr nonnull %6) #9
  call void @llvm.lifetime.end.p0(i64 20, ptr nonnull %5) #9
  call void @llvm.lifetime.end.p0(i64 16, ptr nonnull %4) #9
  call void @llvm.lifetime.end.p0(i64 16, ptr nonnull %3) #9
  ret i32 %.0
}